target datalayout = "e-m:e-p270:32:32-p271:32:32-p272:64:64-i64:64-i128:128-f80:128-n8:16:32:64-S128"
target triple = "x86_64-pc-linux-gnu"

%struct.AVIOContext = type { ptr, ptr, i32, ptr, ptr, ptr, ptr, ptr, ptr, i64, i32, i32, i32, i32, i32, i64, ptr, ptr, ptr, ptr, i32, i32, ptr, ptr, ptr, i32, ptr, i64, i64 }
%struct.URLContext = type { ptr, ptr, ptr, ptr, i32, i32, i32, i32, %struct.AVIOInterruptCB, i64, ptr, ptr, i32 }
%struct.AVIOInterruptCB = type { ptr, ptr }
%struct.URLProtocol = type { ptr, ptr, ptr, ptr, ptr, ptr, ptr, ptr, ptr, ptr, ptr, ptr, ptr, ptr, ptr, ptr, i32, i32, ptr, ptr, ptr, ptr, ptr, ptr, ptr }

; Function Attrs: nounwind uwtable
define i32 @ffurl_handshake(ptr noundef %0) #1 {
  %2 = alloca i32, align 4
  %3 = alloca ptr, align 8
  %4 = alloca i32, align 4
  %5 = alloca i32, align 4
  store ptr %0, ptr %3, align 8, !tbaa !22
  call void @llvm.lifetime.start.p0(i64 4, ptr %4) #10
  %6 = load ptr, ptr %3, align 8, !tbaa !22
  %7 = getelementptr inbounds nuw %struct.URLContext, ptr %6, i32 0, i32 1
  %8 = load ptr, ptr %7, align 8, !tbaa !38
  %9 = getelementptr inbounds nuw %struct.URLProtocol, ptr %8, i32 0, i32 4
  %10 = load ptr, ptr %9, align 8, !tbaa !68
  %11 = icmp ne ptr %10, null
  br i1 %11, label %12, label %25

12:                                               ; preds = %1
  %13 = load ptr, ptr %3, align 8, !tbaa !22
  %14 = getelementptr inbounds nuw %struct.URLContext, ptr %13, i32 0, i32 1
  %15 = load ptr, ptr %14, align 8, !tbaa !38
  %16 = getelementptr inbounds nuw %struct.URLProtocol, ptr %15, i32 0, i32 4
  %17 = load ptr, ptr %16, align 8, !tbaa !68
  %18 = load ptr, ptr %3, align 8, !tbaa !22
  %19 = call i32 %17(ptr noundef %18)
  store i32 %19, ptr %4, align 4, !tbaa !21
  %20 = load i32, ptr %4, align 4, !tbaa !21
  %21 = icmp ne i32 %20, 0
  br i1 %21, label %22, label %24

22:                                               ; preds = %12
  %23 = load i32, ptr %4, align 4, !tbaa !21
  store i32 %23, ptr %2, align 4
  store i32 1, ptr %5, align 4
  br label %28

24:                                               ; preds = %12
  br label %25

25:                                               ; preds = %24, %1
  %26 = load ptr, ptr %3, align 8, !tbaa !22
  %27 = getelementptr inbounds nuw %struct.URLContext, ptr %26, i32 0, i32 7
  store i32 1, ptr %27, align 4, !tbaa !45
  store i32 0, ptr %2, align 4
  store i32 1, ptr %5, align 4
  br label %28

28:                                               ; preds = %25, %22
  call void @llvm.lifetime.end.p0(i64 4, ptr %4) #10
  %29 = load i32, ptr %2, align 4
  ret i32 %29
}

; Function Attrs: nounwind uwtable
define i32 @avio_handshake(ptr noundef %0) #1 {
  %2 = alloca ptr, align 8
  %3 = alloca ptr, align 8
  store ptr %0, ptr %2, align 8, !tbaa !8
  call void @llvm.lifetime.start.p0(i64 8, ptr %3) #10
  %4 = load ptr, ptr %2, align 8, !tbaa !8
  %5 = getelementptr inbounds nuw %struct.AVIOContext, ptr %4, i32 0, i32 5
  %6 = load ptr, ptr %5, align 8, !tbaa !10
  store ptr %6, ptr %3, align 8, !tbaa !22
  %7 = load ptr, ptr %3, align 8, !tbaa !22
  %8 = call i32 @ffurl_handshake(ptr noundef %7)
  call void @llvm.lifetime.end.p0(i64 8, ptr %3) #10
  ret i32 %8
}