; Function Attrs: nounwind uwtable
define i32 @avio_handshake(ptr noundef readonly captures(none) %0) local_unnamed_addr #3 {
  %2 = getelementptr inbounds nuw i8, ptr %0, i64 40
  %3 = load ptr, ptr %2, align 8, !tbaa !4
  %4 = getelementptr inbounds nuw i8, ptr %3, i64 8
  %5 = load ptr, ptr %4, align 8, !tbaa !21
  %6 = getelementptr inbounds nuw i8, ptr %5, i64 32
  %7 = load ptr, ptr %6, align 8, !tbaa !62
  %.not.i = icmp eq ptr %7, null
  br i1 %.not.i, label %10, label %8

8:                                                ; preds = %1
  %9 = tail call i32 %7(ptr noundef nonnull %3) #12
  %.not8.i = icmp eq i32 %9, 0
  br i1 %.not8.i, label %10, label %ffurl_handshake.exit

10:                                               ; preds = %8, %1
  %11 = getelementptr inbounds nuw i8, ptr %3, i64 44
  store i32 1, ptr %11, align 4, !tbaa !38
  br label %ffurl_handshake.exit

ffurl_handshake.exit:                             ; preds = %8, %10
  %.0.i = phi i32 [ 0, %10 ], [ %9, %8 ]
  ret i32 %.0.i
}